---
triple:          'x86_64-apple-darwin'
binary-path:     '/Users/sachinadlakha/Desktop/CPP/output/sorting_algo'
relocations:
  - { offsetInCU: 0x2DB7, offset: 0x2DB7, size: 0x8, addend: 0x0, symName: __ZNSt3__111__sift_downB8ue170006INS_17_ClassicAlgPolicyERPFbiiEPiEEvT1_OT0_NS_15iterator_traitsIS6_E15difference_typeES6_, symObjAddr: 0x8C0, symBinAddr: 0x100001180, symSize: 0x1E0 }
  - { offsetInCU: 0x2E90, offset: 0x2E90, size: 0x8, addend: 0x0, symName: __ZNSt3__117__floyd_sift_downB8ue170006INS_17_ClassicAlgPolicyERPFbiiEPiEET1_S6_OT0_NS_15iterator_traitsIS6_E15difference_typeE, symObjAddr: 0xC60, symBinAddr: 0x100001520, symSize: 0xF0 }
  - { offsetInCU: 0x2F28, offset: 0x2F28, size: 0x8, addend: 0x0, symName: __ZNSt3__111__introsortINS_17_ClassicAlgPolicyERPFbiiEPiLb0EEEvT1_S6_T0_NS_15iterator_traitsIS6_E15difference_typeEb, symObjAddr: 0xEE0, symBinAddr: 0x1000017A0, symSize: 0x440 }
  - { offsetInCU: 0x3056, offset: 0x3056, size: 0x8, addend: 0x0, symName: __ZNSt3__126__insertion_sort_unguardedB8ue170006INS_17_ClassicAlgPolicyERPFbiiEPiEEvT1_S6_T0_, symObjAddr: 0x1530, symBinAddr: 0x100001DF0, symSize: 0x100 }
  - { offsetInCU: 0x3146, offset: 0x3146, size: 0x8, addend: 0x0, symName: __ZNSt3__131__partition_with_equals_on_leftB8ue170006INS_17_ClassicAlgPolicyEPiRPFbiiEEET0_S6_S6_T1_, symObjAddr: 0x1850, symBinAddr: 0x100002110, symSize: 0x1D0 }
  - { offsetInCU: 0x3201, offset: 0x3201, size: 0x8, addend: 0x0, symName: __ZNSt3__118__bitset_partitionB8ue170006INS_17_ClassicAlgPolicyEPiRPFbiiEEENS_4pairIT0_bEES7_S7_T1_, symObjAddr: 0x1A20, symBinAddr: 0x1000022E0, symSize: 0x2B0 }
  - { offsetInCU: 0x32FC, offset: 0x32FC, size: 0x8, addend: 0x0, symName: __ZNSt3__124__swap_bitmap_pos_withinB8ue170006INS_17_ClassicAlgPolicyEPiEEvRT0_S4_RyS5_, symObjAddr: 0x2780, symBinAddr: 0x100003040, symSize: 0x190 }
  - { offsetInCU: 0x33C9, offset: 0x33C9, size: 0x8, addend: 0x0, symName: __ZNSt3__132__partition_with_equals_on_rightB8ue170006INS_17_ClassicAlgPolicyEPiRPFbiiEEENS_4pairIT0_bEES7_S7_T1_, symObjAddr: 0x1CD0, symBinAddr: 0x100002590, symSize: 0x1D0 }
  - { offsetInCU: 0x3494, offset: 0x3494, size: 0x8, addend: 0x0, symName: __ZNSt3__127__insertion_sort_incompleteB8ue170006INS_17_ClassicAlgPolicyERPFbiiEPiEEbT1_S6_T0_, symObjAddr: 0x1EA0, symBinAddr: 0x100002760, symSize: 0x290 }
  - { offsetInCU: 0x358A, offset: 0x358A, size: 0x8, addend: 0x0, symName: __ZNSt3__124__put_character_sequenceB8ue170006IcNS_11char_traitsIcEEEERNS_13basic_ostreamIT_T0_EES7_PKS4_m, symObjAddr: 0x2A30, symBinAddr: 0x1000032F0, symSize: 0x1F0 }
  - { offsetInCU: 0x4ED7, offset: 0x4ED7, size: 0x8, addend: 0x0, symName: __ZNSt3__14swapB8ue170006IiEEvRT_S2_, symObjAddr: 0xC0, symBinAddr: 0x100000980, symSize: 0x30 }
  - { offsetInCU: 0x4F28, offset: 0x4F28, size: 0x8, addend: 0x0, symName: __ZNSt3__14sortB8ue170006IPiPFbiiEEEvT_S4_T0_, symObjAddr: 0x310, symBinAddr: 0x100000BD0, symSize: 0x30 }
  - { offsetInCU: 0x4F82, offset: 0x4F82, size: 0x8, addend: 0x0, symName: __ZNSt3__1lsB8ue170006INS_11char_traitsIcEEEERNS_13basic_ostreamIcT_EES6_PKc, symObjAddr: 0x340, symBinAddr: 0x100000C00, symSize: 0x40 }
  - { offsetInCU: 0x4FC8, offset: 0x4FC8, size: 0x8, addend: 0x0, symName: __ZNSt3__14endlB8ue170006IcNS_11char_traitsIcEEEERNS_13basic_ostreamIT_T0_EES7_, symObjAddr: 0x3A0, symBinAddr: 0x100000C60, symSize: 0x50 }
  - { offsetInCU: 0x5008, offset: 0x5008, size: 0x8, addend: 0x0, symName: __ZNSt3__111__sort_implB8ue170006INS_17_ClassicAlgPolicyEPiPFbiiEEEvT0_S5_RT1_, symObjAddr: 0x4B0, symBinAddr: 0x100000D70, symSize: 0xD0 }
  - { offsetInCU: 0x506B, offset: 0x506B, size: 0x8, addend: 0x0, symName: __ZNSt3__123__debug_randomize_rangeB8ue170006INS_17_ClassicAlgPolicyEPiS2_EEvT0_T1_, symObjAddr: 0x580, symBinAddr: 0x100000E40, symSize: 0x10 }
  - { offsetInCU: 0x50BC, offset: 0x50BC, size: 0x8, addend: 0x0, symName: __ZNSt3__130__libcpp_is_constant_evaluatedB8ue170006Ev, symObjAddr: 0x590, symBinAddr: 0x100000E50, symSize: 0x10 }
  - { offsetInCU: 0x50D9, offset: 0x50D9, size: 0x8, addend: 0x0, symName: __ZNSt3__114__partial_sortB8ue170006INS_17_ClassicAlgPolicyEPFbiiEPiS4_EET1_S5_S5_T2_RT0_, symObjAddr: 0x5A0, symBinAddr: 0x100000E60, symSize: 0x90 }
  - { offsetInCU: 0x5161, offset: 0x5161, size: 0x8, addend: 0x0, symName: __ZNSt3__113__unwrap_iterB8ue170006IPiNS_18__unwrap_iter_implIS1_Lb1EEELi0EEEDTclsrT0_8__unwrapclsr3stdE7declvalIT_EEEES5_, symObjAddr: 0x630, symBinAddr: 0x100000EF0, symSize: 0x20 }
  - { offsetInCU: 0x51A5, offset: 0x51A5, size: 0x8, addend: 0x0, symName: __ZNSt3__115__sort_dispatchB8ue170006INS_17_ClassicAlgPolicyEPiPFbiiEEEvT0_S5_RT1_, symObjAddr: 0x650, symBinAddr: 0x100000F10, symSize: 0x60 }
  - { offsetInCU: 0x5223, offset: 0x5223, size: 0x8, addend: 0x0, symName: __ZNSt3__135__check_strict_weak_ordering_sortedB8ue170006IPiPFbiiEEEvT_S4_RT0_, symObjAddr: 0x6B0, symBinAddr: 0x100000F70, symSize: 0x20 }
  - { offsetInCU: 0x5363, offset: 0x5363, size: 0x8, addend: 0x0, symName: __ZNSt3__119__partial_sort_implB8ue170006INS_17_ClassicAlgPolicyERPFbiiEPiS5_EET1_S6_S6_T2_OT0_, symObjAddr: 0x6F0, symBinAddr: 0x100000FB0, symSize: 0x100 }
  - { offsetInCU: 0x53F9, offset: 0x53F9, size: 0x8, addend: 0x0, symName: __ZNSt3__111__make_heapB8ue170006INS_17_ClassicAlgPolicyERPFbiiEPiEEvT1_S6_OT0_, symObjAddr: 0x7F0, symBinAddr: 0x1000010B0, symSize: 0xA0 }
  - { offsetInCU: 0x549B, offset: 0x549B, size: 0x8, addend: 0x0, symName: __ZNSt3__111__sort_heapB8ue170006INS_17_ClassicAlgPolicyERPFbiiEPiEEvT1_S6_OT0_, symObjAddr: 0xAA0, symBinAddr: 0x100001360, symSize: 0x90 }
  - { offsetInCU: 0x553D, offset: 0x553D, size: 0x8, addend: 0x0, symName: __ZNSt3__19iter_swapB8ue170006IPiS1_EEvT_T0_, symObjAddr: 0xB30, symBinAddr: 0x1000013F0, symSize: 0x30 }
  - { offsetInCU: 0x55A9, offset: 0x55A9, size: 0x8, addend: 0x0, symName: __ZNSt3__110__pop_heapB8ue170006INS_17_ClassicAlgPolicyEPFbiiEPiEEvT1_S5_RT0_NS_15iterator_traitsIS5_E15difference_typeE, symObjAddr: 0xB90, symBinAddr: 0x100001450, symSize: 0xD0 }
  - { offsetInCU: 0x5659, offset: 0x5659, size: 0x8, addend: 0x0, symName: __ZNSt3__19__sift_upB8ue170006INS_17_ClassicAlgPolicyERPFbiiEPiEEvT1_S6_OT0_NS_15iterator_traitsIS6_E15difference_typeE, symObjAddr: 0xD50, symBinAddr: 0x100001610, symSize: 0x110 }
  - { offsetInCU: 0x575C, offset: 0x575C, size: 0x8, addend: 0x0, symName: __ZNSt3__112__to_addressB8ue170006IiEEPT_S2_, symObjAddr: 0xE80, symBinAddr: 0x100001740, symSize: 0x10 }
  - { offsetInCU: 0x5791, offset: 0x5791, size: 0x8, addend: 0x0, symName: __ZNSt3__17__log2iB8ue170006IlEET_S1_, symObjAddr: 0xE90, symBinAddr: 0x100001750, symSize: 0x50 }
  - { offsetInCU: 0x57C8, offset: 0x57C8, size: 0x8, addend: 0x0, symName: __ZNSt3__112__libcpp_clzB8ue170006Em, symObjAddr: 0x1320, symBinAddr: 0x100001BE0, symSize: 0x20 }
  - { offsetInCU: 0x57F4, offset: 0x57F4, size: 0x8, addend: 0x0, symName: __ZNSt3__124__sort3_maybe_branchlessB8ue170006INS_17_ClassicAlgPolicyERPFbiiEPiEENS_9enable_ifIXntsr21__use_branchless_sortIT0_T1_EE5valueEvE4typeES8_S8_S8_S7_, symObjAddr: 0x1340, symBinAddr: 0x100001C00, symSize: 0x40 }
  - { offsetInCU: 0x5865, offset: 0x5865, size: 0x8, addend: 0x0, symName: __ZNSt3__124__sort4_maybe_branchlessB8ue170006INS_17_ClassicAlgPolicyERPFbiiEPiEENS_9enable_ifIXntsr21__use_branchless_sortIT0_T1_EE5valueEvE4typeES8_S8_S8_S8_S7_, symObjAddr: 0x1380, symBinAddr: 0x100001C40, symSize: 0x40 }
  - { offsetInCU: 0x58E4, offset: 0x58E4, size: 0x8, addend: 0x0, symName: __ZNSt3__124__sort5_maybe_branchlessB8ue170006INS_17_ClassicAlgPolicyERPFbiiEPiEENS_9enable_ifIXntsr21__use_branchless_sortIT0_T1_EE5valueEvE4typeES8_S8_S8_S8_S8_S7_, symObjAddr: 0x13C0, symBinAddr: 0x100001C80, symSize: 0x50 }
  - { offsetInCU: 0x5971, offset: 0x5971, size: 0x8, addend: 0x0, symName: __ZNSt3__116__insertion_sortB8ue170006INS_17_ClassicAlgPolicyERPFbiiEPiEEvT1_S6_T0_, symObjAddr: 0x1410, symBinAddr: 0x100001CD0, symSize: 0x120 }
  - { offsetInCU: 0x5A34, offset: 0x5A34, size: 0x8, addend: 0x0, symName: __ZNSt3__114__partial_sortB8ue170006INS_17_ClassicAlgPolicyERPFbiiEPiS5_EET1_S6_S6_T2_RT0_, symObjAddr: 0x1630, symBinAddr: 0x100001EF0, symSize: 0x90 }
  - { offsetInCU: 0x5ABC, offset: 0x5ABC, size: 0x8, addend: 0x0, symName: __ZNSt3__17__sort3B8ue170006INS_17_ClassicAlgPolicyERPFbiiEPiEEjT1_S6_S6_T0_, symObjAddr: 0x16C0, symBinAddr: 0x100001F80, symSize: 0x160 }
  - { offsetInCU: 0x5B3B, offset: 0x5B3B, size: 0x8, addend: 0x0, symName: __ZNSt3__17__sort4B8ue170006INS_17_ClassicAlgPolicyERPFbiiEPiEEvT1_S6_S6_S6_T0_, symObjAddr: 0x2130, symBinAddr: 0x1000029F0, symSize: 0xD0 }
  - { offsetInCU: 0x5BB6, offset: 0x5BB6, size: 0x8, addend: 0x0, symName: __ZNSt3__17__sort5B8ue170006INS_17_ClassicAlgPolicyERPFbiiEPiEEvT1_S6_S6_S6_S6_T0_, symObjAddr: 0x2200, symBinAddr: 0x100002AC0, symSize: 0x110 }
  - { offsetInCU: 0x5C3F, offset: 0x5C3F, size: 0x8, addend: 0x0, symName: __ZNSt3__122__populate_left_bitsetB8ue170006IRPFbiiEPiiEEvT0_T_RT1_Ry, symObjAddr: 0x2310, symBinAddr: 0x100002BD0, symSize: 0x90 }
  - { offsetInCU: 0x5CFA, offset: 0x5CFA, size: 0x8, addend: 0x0, symName: __ZNSt3__123__populate_right_bitsetB8ue170006IRPFbiiEPiiEEvT0_T_RT1_Ry, symObjAddr: 0x23A0, symBinAddr: 0x100002C60, symSize: 0x90 }
  - { offsetInCU: 0x5DB5, offset: 0x5DB5, size: 0x8, addend: 0x0, symName: __ZNSt3__117__swap_bitmap_posB8ue170006INS_17_ClassicAlgPolicyEPiEEvT0_S3_RyS4_, symObjAddr: 0x2430, symBinAddr: 0x100002CF0, symSize: 0xE0 }
  - { offsetInCU: 0x5E56, offset: 0x5E56, size: 0x8, addend: 0x0, symName: __ZNSt3__133__bitset_partition_partial_blocksB8ue170006INS_17_ClassicAlgPolicyERPFbiiEPiiEEvRT1_S7_T0_RT2_RySB_, symObjAddr: 0x2510, symBinAddr: 0x100002DD0, symSize: 0x270 }
  - { offsetInCU: 0x5FDD, offset: 0x5FDD, size: 0x8, addend: 0x0, symName: __ZNSt3__19make_pairB8ue170006IRPiRbEENS_4pairINS_18__unwrap_ref_decayIT_E4typeENS5_IT0_E4typeEEEOS6_OS9_, symObjAddr: 0x2910, symBinAddr: 0x1000031D0, symSize: 0x30 }
  - { offsetInCU: 0x602C, offset: 0x602C, size: 0x8, addend: 0x0, symName: __ZNSt3__112__libcpp_ctzB8ue170006Ey, symObjAddr: 0x2940, symBinAddr: 0x100003200, symSize: 0x20 }
  - { offsetInCU: 0x6058, offset: 0x6058, size: 0x8, addend: 0x0, symName: __ZNSt3__113__libcpp_blsrB8ue170006Ey, symObjAddr: 0x2960, symBinAddr: 0x100003220, symSize: 0x20 }
  - { offsetInCU: 0x6084, offset: 0x6084, size: 0x8, addend: 0x0, symName: __ZNSt3__112__libcpp_clzB8ue170006Ey, symObjAddr: 0x29B0, symBinAddr: 0x100003270, symSize: 0x20 }
  - { offsetInCU: 0x615D, offset: 0x615D, size: 0x8, addend: 0x0, symName: __ZNSt3__116__pad_and_outputB8ue170006IcNS_11char_traitsIcEEEENS_19ostreambuf_iteratorIT_T0_EES6_PKS4_S8_S8_RNS_8ios_baseES4_, symObjAddr: 0x2C80, symBinAddr: 0x100003540, symSize: 0x220 }
  - { offsetInCU: 0x622D, offset: 0x622D, size: 0x8, addend: 0x0, symName: __ZNSt3__112__to_addressB8ue170006IKcEEPT_S3_, symObjAddr: 0x31B0, symBinAddr: 0x100003A70, symSize: 0x10 }
  - { offsetInCU: 0x6295, offset: 0x6295, size: 0x8, addend: 0x0, symName: __ZNSt3__19use_facetB8ue170006INS_5ctypeIcEEEERKT_RKNS_6localeE, symObjAddr: 0x3460, symBinAddr: 0x100003D20, symSize: 0x30 }
  - { offsetInCU: 0x6762, offset: 0x6762, size: 0x8, addend: 0x0, symName: __ZNSt3__118__constexpr_strlenB8ue170006EPKc, symObjAddr: 0x34F0, symBinAddr: 0x100003DB0, symSize: 0x1B }
  - { offsetInCU: 0x8DBB, offset: 0x8DBB, size: 0x8, addend: 0x0, symName: __Z11bubble_sortPii, symObjAddr: 0x0, symBinAddr: 0x1000008C0, symSize: 0xC0 }
  - { offsetInCU: 0x8E29, offset: 0x8E29, size: 0x8, addend: 0x0, symName: __Z14insertion_sortPii, symObjAddr: 0xF0, symBinAddr: 0x1000009B0, symSize: 0xC0 }
  - { offsetInCU: 0x8EB3, offset: 0x8EB3, size: 0x8, addend: 0x0, symName: __Z14selection_sortPii, symObjAddr: 0x1B0, symBinAddr: 0x100000A70, symSize: 0xB0 }
  - { offsetInCU: 0x8F3D, offset: 0x8F3D, size: 0x8, addend: 0x0, symName: __Z7compareii, symObjAddr: 0x260, symBinAddr: 0x100000B20, symSize: 0x20 }
  - { offsetInCU: 0x8F77, offset: 0x8F77, size: 0x8, addend: 0x0, symName: __Z12inbuilt_sortPii, symObjAddr: 0x280, symBinAddr: 0x100000B40, symSize: 0x90 }
  - { offsetInCU: 0x8FC9, offset: 0x8FC9, size: 0x8, addend: 0x0, symName: __ZNSt3__113basic_ostreamIcNS_11char_traitsIcEEElsB8ue170006EPFRS3_S4_E, symObjAddr: 0x380, symBinAddr: 0x100000C40, symSize: 0x20 }
  - { offsetInCU: 0x8FFB, offset: 0x8FFB, size: 0x8, addend: 0x0, symName: _main, symObjAddr: 0x3F0, symBinAddr: 0x100000CB0, symSize: 0xC0 }
  - { offsetInCU: 0x9032, offset: 0x9032, size: 0x8, addend: 0x0, symName: __ZNSt3__18_IterOpsINS_17_ClassicAlgPolicyEE4nextB8ue170006IPiEET_S5_S5_, symObjAddr: 0x6D0, symBinAddr: 0x100000F90, symSize: 0x20 }
  - { offsetInCU: 0x906C, offset: 0x906C, size: 0x8, addend: 0x0, symName: __ZNSt3__18_IterOpsINS_17_ClassicAlgPolicyEE9iter_swapB8ue170006IRPiS5_EEvOT_OT0_, symObjAddr: 0x890, symBinAddr: 0x100001150, symSize: 0x30 }
  - { offsetInCU: 0x90B3, offset: 0x90B3, size: 0x8, addend: 0x0, symName: __ZNSt3__18_IterOpsINS_17_ClassicAlgPolicyEE11__iter_moveB8ue170006IRPiEENS_9enable_ifIXsr12is_referenceIDTdeclsr3stdE7declvalIRT_EEEEE5valueEDTclsr3stdE4movedeclsr3stdE7declvalIS8_EEEEE4typeEOS7_, symObjAddr: 0xB60, symBinAddr: 0x100001420, symSize: 0x20 }
  - { offsetInCU: 0x90DE, offset: 0x90DE, size: 0x8, addend: 0x0, symName: __ZNSt3__18_IterOpsINS_17_ClassicAlgPolicyEE25__validate_iter_referenceB8ue170006IRPiEEvv, symObjAddr: 0xB80, symBinAddr: 0x100001440, symSize: 0x10 }
  - { offsetInCU: 0x90FB, offset: 0x90FB, size: 0x8, addend: 0x0, symName: __ZNSt3__118__unwrap_iter_implIPiLb1EE8__unwrapB8ue170006ES1_, symObjAddr: 0xE60, symBinAddr: 0x100001720, symSize: 0x20 }
  - { offsetInCU: 0x9122, offset: 0x9122, size: 0x8, addend: 0x0, symName: __ZNSt3__18_IterOpsINS_17_ClassicAlgPolicyEE9iter_swapB8ue170006IRPiS4_EEvOT_OT0_, symObjAddr: 0x1820, symBinAddr: 0x1000020E0, symSize: 0x30 }
  - { offsetInCU: 0x9164, offset: 0x9164, size: 0x8, addend: 0x0, symName: __ZNSt3__18_IterOpsINS_17_ClassicAlgPolicyEE9iter_swapB8ue170006IPiS4_EEvOT_OT0_, symObjAddr: 0x2980, symBinAddr: 0x100003240, symSize: 0x30 }
  - { offsetInCU: 0x91CE, offset: 0x91CE, size: 0x8, addend: 0x0, symName: __ZNSt3__14pairIPibEC1B8ue170006ERKS1_RKb, symObjAddr: 0x29D0, symBinAddr: 0x100003290, symSize: 0x30 }
  - { offsetInCU: 0x9213, offset: 0x9213, size: 0x8, addend: 0x0, symName: __ZNSt3__14pairIPibEC2B8ue170006ERKS1_RKb, symObjAddr: 0x2A00, symBinAddr: 0x1000032C0, symSize: 0x30 }
  - { offsetInCU: 0x9258, offset: 0x9258, size: 0x8, addend: 0x0, symName: __ZNSt3__111char_traitsIcE6lengthB8ue170006EPKc, symObjAddr: 0x2C20, symBinAddr: 0x1000034E0, symSize: 0x40 }
  - { offsetInCU: 0x9297, offset: 0x9297, size: 0x8, addend: 0x0, symName: __ZNKSt3__113basic_ostreamIcNS_11char_traitsIcEEE6sentrycvbB8ue170006Ev, symObjAddr: 0x2C60, symBinAddr: 0x100003520, symSize: 0x20 }
  - { offsetInCU: 0x92BC, offset: 0x92BC, size: 0x8, addend: 0x0, symName: __ZNSt3__119ostreambuf_iteratorIcNS_11char_traitsIcEEEC1B8ue170006ERNS_13basic_ostreamIcS2_EE, symObjAddr: 0x2EA0, symBinAddr: 0x100003760, symSize: 0x30 }
  - { offsetInCU: 0x92F3, offset: 0x92F3, size: 0x8, addend: 0x0, symName: __ZNKSt3__18ios_base5flagsB8ue170006Ev, symObjAddr: 0x2ED0, symBinAddr: 0x100003790, symSize: 0x20 }
  - { offsetInCU: 0x931A, offset: 0x931A, size: 0x8, addend: 0x0, symName: __ZNKSt3__19basic_iosIcNS_11char_traitsIcEEE4fillB8ue170006Ev, symObjAddr: 0x2EF0, symBinAddr: 0x1000037B0, symSize: 0x70 }
  - { offsetInCU: 0x9340, offset: 0x9340, size: 0x8, addend: 0x0, symName: __ZNKSt3__119ostreambuf_iteratorIcNS_11char_traitsIcEEE6failedB8ue170006Ev, symObjAddr: 0x2F60, symBinAddr: 0x100003820, symSize: 0x20 }
  - { offsetInCU: 0x9364, offset: 0x9364, size: 0x8, addend: 0x0, symName: __ZNSt3__19basic_iosIcNS_11char_traitsIcEEE8setstateB8ue170006Ej, symObjAddr: 0x2F80, symBinAddr: 0x100003840, symSize: 0x30 }
  - { offsetInCU: 0x9398, offset: 0x9398, size: 0x8, addend: 0x0, symName: __ZNKSt3__18ios_base5widthB8ue170006Ev, symObjAddr: 0x2FC0, symBinAddr: 0x100003880, symSize: 0x20 }
  - { offsetInCU: 0x93BE, offset: 0x93BE, size: 0x8, addend: 0x0, symName: __ZNSt3__115basic_streambufIcNS_11char_traitsIcEEE5sputnB8ue170006EPKcl, symObjAddr: 0x2FE0, symBinAddr: 0x1000038A0, symSize: 0x30 }
  - { offsetInCU: 0x93FF, offset: 0x93FF, size: 0x8, addend: 0x0, symName: __ZNSt3__112basic_stringIcNS_11char_traitsIcEENS_9allocatorIcEEEC1B8ue170006Emc, symObjAddr: 0x3010, symBinAddr: 0x1000038D0, symSize: 0x30 }
  - { offsetInCU: 0x9445, offset: 0x9445, size: 0x8, addend: 0x0, symName: __ZNKSt3__112basic_stringIcNS_11char_traitsIcEENS_9allocatorIcEEE4dataB8ue170006Ev, symObjAddr: 0x3040, symBinAddr: 0x100003900, symSize: 0x30 }
  - { offsetInCU: 0x946A, offset: 0x946A, size: 0x8, addend: 0x0, symName: __ZNSt3__18ios_base5widthB8ue170006El, symObjAddr: 0x3070, symBinAddr: 0x100003930, symSize: 0x30 }
  - { offsetInCU: 0x94AF, offset: 0x94AF, size: 0x8, addend: 0x0, symName: __ZNSt3__112basic_stringIcNS_11char_traitsIcEENS_9allocatorIcEEEC2B8ue170006Emc, symObjAddr: 0x30A0, symBinAddr: 0x100003960, symSize: 0x50 }
  - { offsetInCU: 0x94FB, offset: 0x94FB, size: 0x8, addend: 0x0, symName: __ZNSt3__117__compressed_pairINS_12basic_stringIcNS_11char_traitsIcEENS_9allocatorIcEEE5__repES5_EC1B8ue170006INS_18__default_init_tagESA_EEOT_OT0_, symObjAddr: 0x30F0, symBinAddr: 0x1000039B0, symSize: 0x30 }
  - { offsetInCU: 0x9552, offset: 0x9552, size: 0x8, addend: 0x0, symName: __ZNSt3__117__compressed_pairINS_12basic_stringIcNS_11char_traitsIcEENS_9allocatorIcEEE5__repES5_EC2B8ue170006INS_18__default_init_tagESA_EEOT_OT0_, symObjAddr: 0x3120, symBinAddr: 0x1000039E0, symSize: 0x30 }
  - { offsetInCU: 0x95A9, offset: 0x95A9, size: 0x8, addend: 0x0, symName: __ZNSt3__122__compressed_pair_elemINS_12basic_stringIcNS_11char_traitsIcEENS_9allocatorIcEEE5__repELi0ELb0EEC2B8ue170006ENS_18__default_init_tagE, symObjAddr: 0x3150, symBinAddr: 0x100003A10, symSize: 0x10 }
  - { offsetInCU: 0x95DC, offset: 0x95DC, size: 0x8, addend: 0x0, symName: __ZNSt3__122__compressed_pair_elemINS_9allocatorIcEELi1ELb1EEC2B8ue170006ENS_18__default_init_tagE, symObjAddr: 0x3160, symBinAddr: 0x100003A20, symSize: 0x20 }
  - { offsetInCU: 0x960F, offset: 0x960F, size: 0x8, addend: 0x0, symName: __ZNSt3__19allocatorIcEC2B8ue170006Ev, symObjAddr: 0x3180, symBinAddr: 0x100003A40, symSize: 0x20 }
  - { offsetInCU: 0x9638, offset: 0x9638, size: 0x8, addend: 0x0, symName: __ZNSt3__116__non_trivial_ifILb1ENS_9allocatorIcEEEC2B8ue170006Ev, symObjAddr: 0x31A0, symBinAddr: 0x100003A60, symSize: 0x10 }
  - { offsetInCU: 0x9660, offset: 0x9660, size: 0x8, addend: 0x0, symName: __ZNKSt3__112basic_stringIcNS_11char_traitsIcEENS_9allocatorIcEEE13__get_pointerB8ue170006Ev, symObjAddr: 0x31C0, symBinAddr: 0x100003A80, symSize: 0x50 }
  - { offsetInCU: 0x9684, offset: 0x9684, size: 0x8, addend: 0x0, symName: __ZNKSt3__112basic_stringIcNS_11char_traitsIcEENS_9allocatorIcEEE9__is_longB8ue170006Ev, symObjAddr: 0x3210, symBinAddr: 0x100003AD0, symSize: 0x60 }
  - { offsetInCU: 0x96A8, offset: 0x96A8, size: 0x8, addend: 0x0, symName: __ZNKSt3__112basic_stringIcNS_11char_traitsIcEENS_9allocatorIcEEE18__get_long_pointerB8ue170006Ev, symObjAddr: 0x3270, symBinAddr: 0x100003B30, symSize: 0x20 }
  - { offsetInCU: 0x96CC, offset: 0x96CC, size: 0x8, addend: 0x0, symName: __ZNKSt3__112basic_stringIcNS_11char_traitsIcEENS_9allocatorIcEEE19__get_short_pointerB8ue170006Ev, symObjAddr: 0x3290, symBinAddr: 0x100003B50, symSize: 0x30 }
  - { offsetInCU: 0x96F0, offset: 0x96F0, size: 0x8, addend: 0x0, symName: __ZNKSt3__117__compressed_pairINS_12basic_stringIcNS_11char_traitsIcEENS_9allocatorIcEEE5__repES5_E5firstB8ue170006Ev, symObjAddr: 0x32C0, symBinAddr: 0x100003B80, symSize: 0x20 }
  - { offsetInCU: 0x9714, offset: 0x9714, size: 0x8, addend: 0x0, symName: __ZNKSt3__122__compressed_pair_elemINS_12basic_stringIcNS_11char_traitsIcEENS_9allocatorIcEEE5__repELi0ELb0EE5__getB8ue170006Ev, symObjAddr: 0x32E0, symBinAddr: 0x100003BA0, symSize: 0x10 }
  - { offsetInCU: 0x9739, offset: 0x9739, size: 0x8, addend: 0x0, symName: __ZNSt3__114pointer_traitsIPKcE10pointer_toB8ue170006ERS1_, symObjAddr: 0x32F0, symBinAddr: 0x100003BB0, symSize: 0x10 }
  - { offsetInCU: 0x975B, offset: 0x975B, size: 0x8, addend: 0x0, symName: __ZNSt3__119ostreambuf_iteratorIcNS_11char_traitsIcEEEC2B8ue170006ERNS_13basic_ostreamIcS2_EE, symObjAddr: 0x3300, symBinAddr: 0x100003BC0, symSize: 0x60 }
  - { offsetInCU: 0x9792, offset: 0x9792, size: 0x8, addend: 0x0, symName: __ZNKSt3__19basic_iosIcNS_11char_traitsIcEEE5rdbufB8ue170006Ev, symObjAddr: 0x3360, symBinAddr: 0x100003C20, symSize: 0x20 }
  - { offsetInCU: 0x97B8, offset: 0x97B8, size: 0x8, addend: 0x0, symName: __ZNKSt3__18ios_base5rdbufB8ue170006Ev, symObjAddr: 0x3380, symBinAddr: 0x100003C40, symSize: 0x20 }
  - { offsetInCU: 0x97DD, offset: 0x97DD, size: 0x8, addend: 0x0, symName: __ZNSt3__111char_traitsIcE11eq_int_typeB8ue170006Eii, symObjAddr: 0x33A0, symBinAddr: 0x100003C60, symSize: 0x20 }
  - { offsetInCU: 0x980F, offset: 0x980F, size: 0x8, addend: 0x0, symName: __ZNSt3__111char_traitsIcE3eofB8ue170006Ev, symObjAddr: 0x33C0, symBinAddr: 0x100003C80, symSize: 0x10 }
  - { offsetInCU: 0x9823, offset: 0x9823, size: 0x8, addend: 0x0, symName: __ZNKSt3__19basic_iosIcNS_11char_traitsIcEEE5widenB8ue170006Ec, symObjAddr: 0x33D0, symBinAddr: 0x100003C90, symSize: 0x90 }
  - { offsetInCU: 0x988F, offset: 0x988F, size: 0x8, addend: 0x0, symName: __ZNKSt3__15ctypeIcE5widenB8ue170006Ec, symObjAddr: 0x3490, symBinAddr: 0x100003D50, symSize: 0x30 }
  - { offsetInCU: 0x98C3, offset: 0x98C3, size: 0x8, addend: 0x0, symName: __ZNSt3__18ios_base8setstateB8ue170006Ej, symObjAddr: 0x34C0, symBinAddr: 0x100003D80, symSize: 0x30 }
...
